target datalayout = "e-m:e-p270:32:32-p271:32:32-p272:64:64-i64:64-i128:128-f80:128-n8:16:32:64-S128"
target triple = "x86_64-pc-linux-gnu"

%struct.open_info = type { ptr, i32, ptr, ptr, ptr, ptr }
%struct.string_elem = type { ptr, ptr }

@stderr = external global ptr, align 8
@.str.268 = private unnamed_addr constant [18 x i8] c"Magic-value-based\00", align 1
@.str.269 = private unnamed_addr constant [17 x i8] c"Heuristics-based\00", align 1
@open_routines = external global ptr, align 8
@.str.270 = private unnamed_addr constant [77 x i8] c"tshark: The available read file types for the \22-X read_format:\22 option are:\0A\00", align 1

; Function Attrs: null_pointer_is_valid sspstrong uwtable
define internal void @list_read_capture_types() #0 {
  %1 = alloca i32, align 4
  %2 = alloca i64, align 8
  %3 = alloca ptr, align 8
  %4 = alloca ptr, align 8
  %5 = alloca ptr, align 8
  %6 = alloca ptr, align 8
  %7 = alloca i64, align 8
  %8 = alloca i64, align 8
  %9 = alloca ptr, align 8
  %10 = alloca ptr, align 8
  call void @llvm.lifetime.start.p0(i64 4, ptr %1) #19
  call void @llvm.lifetime.start.p0(i64 8, ptr %2) #19
  call void @llvm.lifetime.start.p0(i64 8, ptr %3) #19
  call void @llvm.lifetime.start.p0(i64 8, ptr %4) #19
  store ptr null, ptr %4, align 8
  call void @llvm.lifetime.start.p0(i64 8, ptr %5) #19
  store ptr @.str.268, ptr %5, align 8
  call void @llvm.lifetime.start.p0(i64 8, ptr %6) #19
  store ptr @.str.269, ptr %6, align 8
  store i64 0, ptr %2, align 8
  store i32 0, ptr %1, align 4
  br label %11

11:                                               ; preds = %22, %0
  %12 = load ptr, ptr @open_routines, align 8
  %13 = load i32, ptr %1, align 4
  %14 = zext i32 %13 to i64
  %15 = getelementptr %struct.open_info, ptr %12, i64 %14
  %16 = getelementptr inbounds nuw %struct.open_info, ptr %15, i32 0, i32 0
  %17 = load ptr, ptr %16, align 8
  %18 = icmp ne ptr %17, null
  br i1 %18, label %19, label %25

19:                                               ; preds = %11
  %20 = load i64, ptr %2, align 8
  %21 = add i64 %20, 1
  store i64 %21, ptr %2, align 8
  br label %22

22:                                               ; preds = %19
  %23 = load i32, ptr %1, align 4
  %24 = add i32 %23, 1
  store i32 %24, ptr %1, align 4
  br label %11, !llvm.loop !20

25:                                               ; preds = %11
  call void @llvm.lifetime.start.p0(i64 8, ptr %7) #19
  %26 = load i64, ptr %2, align 8
  store i64 %26, ptr %7, align 8
  call void @llvm.lifetime.start.p0(i64 8, ptr %8) #19
  store i64 16, ptr %8, align 8
  call void @llvm.lifetime.start.p0(i64 8, ptr %9) #19
  %27 = load i64, ptr %8, align 8
  %28 = icmp eq i64 %27, 1
  br i1 %28, label %29, label %32

29:                                               ; preds = %25
  %30 = load i64, ptr %7, align 8
  %31 = call noalias ptr @g_malloc(i64 noundef %30) #24
  store ptr %31, ptr %9, align 8
  br label %53

32:                                               ; preds = %25
  %33 = load i64, ptr %7, align 8
  %34 = call i1 @llvm.is.constant.i64(i64 %33)
  br i1 %34, label %35, label %48

35:                                               ; preds = %32
  %36 = load i64, ptr %8, align 8
  %37 = icmp eq i64 %36, 0
  br i1 %37, label %43, label %38

38:                                               ; preds = %35
  %39 = load i64, ptr %7, align 8
  %40 = load i64, ptr %8, align 8
  %41 = udiv i64 -1, %40
  %42 = icmp ule i64 %39, %41
  br i1 %42, label %43, label %48

43:                                               ; preds = %38, %35
  %44 = load i64, ptr %7, align 8
  %45 = load i64, ptr %8, align 8
  %46 = mul i64 %44, %45
  %47 = call noalias ptr @g_malloc(i64 noundef %46) #24
  store ptr %47, ptr %9, align 8
  br label %52

48:                                               ; preds = %38, %32
  %49 = load i64, ptr %7, align 8
  %50 = load i64, ptr %8, align 8
  %51 = call noalias ptr @g_malloc_n(i64 noundef %49, i64 noundef %50) #25
  store ptr %51, ptr %9, align 8
  br label %52

52:                                               ; preds = %48, %43
  br label %53

53:                                               ; preds = %52, %29
  %54 = load ptr, ptr %9, align 8
  store ptr %54, ptr %10, align 8
  call void @llvm.lifetime.end.p0(i64 8, ptr %9) #19
  call void @llvm.lifetime.end.p0(i64 8, ptr %8) #19
  call void @llvm.lifetime.end.p0(i64 8, ptr %7) #19
  %55 = load ptr, ptr %10, align 8
  store ptr %55, ptr %3, align 8
  %56 = load ptr, ptr @stderr, align 8
  %57 = call i32 (ptr, i32, ptr, ...) @__fprintf_chk(ptr noundef %56, i32 noundef 2, ptr noundef @.str.270)
  store i32 0, ptr %1, align 4
  br label %58

58:                                               ; preds = %109, %53
  %59 = load i32, ptr %1, align 4
  %60 = zext i32 %59 to i64
  %61 = load i64, ptr %2, align 8
  %62 = icmp ult i64 %60, %61
  br i1 %62, label %63, label %71

63:                                               ; preds = %58
  %64 = load ptr, ptr @open_routines, align 8
  %65 = load i32, ptr %1, align 4
  %66 = zext i32 %65 to i64
  %67 = getelementptr %struct.open_info, ptr %64, i64 %66
  %68 = getelementptr inbounds nuw %struct.open_info, ptr %67, i32 0, i32 0
  %69 = load ptr, ptr %68, align 8
  %70 = icmp ne ptr %69, null
  br label %71

71:                                               ; preds = %63, %58
  %72 = phi i1 [ false, %58 ], [ %70, %63 ]
  br i1 %72, label %73, label %112

73:                                               ; preds = %71
  %74 = load ptr, ptr @open_routines, align 8
  %75 = load i32, ptr %1, align 4
  %76 = zext i32 %75 to i64
  %77 = getelementptr %struct.open_info, ptr %74, i64 %76
  %78 = getelementptr inbounds nuw %struct.open_info, ptr %77, i32 0, i32 0
  %79 = load ptr, ptr %78, align 8
  %80 = load ptr, ptr %3, align 8
  %81 = load i32, ptr %1, align 4
  %82 = zext i32 %81 to i64
  %83 = getelementptr %struct.string_elem, ptr %80, i64 %82
  %84 = getelementptr inbounds nuw %struct.string_elem, ptr %83, i32 0, i32 0
  store ptr %79, ptr %84, align 8
  %85 = load ptr, ptr @open_routines, align 8
  %86 = load i32, ptr %1, align 4
  %87 = zext i32 %86 to i64
  %88 = getelementptr %struct.open_info, ptr %85, i64 %87
  %89 = getelementptr inbounds nuw %struct.open_info, ptr %88, i32 0, i32 1
  %90 = load i32, ptr %89, align 8
  %91 = icmp eq i32 %90, 0
  br i1 %91, label %92, label %94

92:                                               ; preds = %73
  %93 = load ptr, ptr %5, align 8
  br label %96

94:                                               ; preds = %73
  %95 = load ptr, ptr %6, align 8
  br label %96

96:                                               ; preds = %94, %92
  %97 = phi ptr [ %93, %92 ], [ %95, %94 ]
  %98 = load ptr, ptr %3, align 8
  %99 = load i32, ptr %1, align 4
  %100 = zext i32 %99 to i64
  %101 = getelementptr %struct.string_elem, ptr %98, i64 %100
  %102 = getelementptr inbounds nuw %struct.string_elem, ptr %101, i32 0, i32 1
  store ptr %97, ptr %102, align 8
  %103 = load ptr, ptr %4, align 8
  %104 = load ptr, ptr %3, align 8
  %105 = load i32, ptr %1, align 4
  %106 = zext i32 %105 to i64
  %107 = getelementptr %struct.string_elem, ptr %104, i64 %106
  %108 = call ptr @g_slist_insert_sorted(ptr noundef %103, ptr noundef %107, ptr noundef @string_compare)
  store ptr %108, ptr %4, align 8
  br label %109

109:                                              ; preds = %96
  %110 = load i32, ptr %1, align 4
  %111 = add i32 %110, 1
  store i32 %111, ptr %1, align 4
  br label %58, !llvm.loop !21

112:                                              ; preds = %71
  %113 = load ptr, ptr %4, align 8
  call void @g_slist_free_full(ptr noundef %113, ptr noundef @string_elem_print)
  %114 = load ptr, ptr %3, align 8
  call void @g_free(ptr noundef %114)
  call void @llvm.lifetime.end.p0(i64 8, ptr %6) #19
  call void @llvm.lifetime.end.p0(i64 8, ptr %5) #19
  call void @llvm.lifetime.end.p0(i64 8, ptr %4) #19
  call void @llvm.lifetime.end.p0(i64 8, ptr %3) #19
  call void @llvm.lifetime.end.p0(i64 8, ptr %2) #19
  call void @llvm.lifetime.end.p0(i64 4, ptr %1) #19
  ret void
}