; Function Attrs: null_pointer_is_valid sspstrong uwtable
define internal fastcc void @list_read_capture_types() unnamed_addr #0 {
  %1 = load ptr, ptr @open_routines, align 8
  %2 = load ptr, ptr %1, align 8
  %.not38 = icmp eq ptr %2, null
  br i1 %.not38, label %._crit_edge, label %.lr.ph

.lr.ph:                                           ; preds = %0, %.lr.ph
  %.03339 = phi i64 [ %3, %.lr.ph ], [ 0, %0 ]
  %3 = add i64 %.03339, 1
  %4 = and i64 %3, 4294967295
  %5 = getelementptr %struct.open_info, ptr %1, i64 %4
  %6 = load ptr, ptr %5, align 8
  %.not = icmp eq ptr %6, null
  br i1 %.not, label %._crit_edge, label %.lr.ph, !llvm.loop !20

._crit_edge:                                      ; preds = %.lr.ph, %0
  %.033.lcssa = phi i64 [ 0, %0 ], [ %3, %.lr.ph ]
  %7 = tail call noalias ptr @g_malloc_n(i64 noundef %.033.lcssa, i64 noundef 16) #25
  %8 = load ptr, ptr @stderr, align 8
  %9 = tail call i32 (ptr, i32, ptr, ...) @__fprintf_chk(ptr noundef %8, i32 noundef 2, ptr noundef nonnull @.str.270)
  %.not48 = icmp eq i64 %.033.lcssa, 0
  br i1 %.not48, label %.critedge, label %.lr.ph44

.lr.ph44:                                         ; preds = %._crit_edge, %14
  %10 = phi i64 [ %23, %14 ], [ 0, %._crit_edge ]
  %.142 = phi i32 [ %22, %14 ], [ 0, %._crit_edge ]
  %.03441 = phi ptr [ %21, %14 ], [ null, %._crit_edge ]
  %11 = load ptr, ptr @open_routines, align 8
  %12 = getelementptr %struct.open_info, ptr %11, i64 %10
  %13 = load ptr, ptr %12, align 8
  %.not37 = icmp eq ptr %13, null
  br i1 %.not37, label %.critedge, label %14

14:                                               ; preds = %.lr.ph44
  %15 = getelementptr %struct.string_elem, ptr %7, i64 %10
  store ptr %13, ptr %15, align 8
  %16 = getelementptr %struct.open_info, ptr %11, i64 %10, i32 1
  %17 = load i32, ptr %16, align 8
  %18 = icmp eq i32 %17, 0
  %19 = select i1 %18, ptr @.str.268, ptr @.str.269
  %20 = getelementptr inbounds nuw i8, ptr %15, i64 8
  store ptr %19, ptr %20, align 8
  %21 = tail call ptr @g_slist_insert_sorted(ptr noundef %.03441, ptr noundef %15, ptr noundef nonnull @string_compare)
  %22 = add i32 %.142, 1
  %23 = zext i32 %22 to i64
  %24 = icmp ugt i64 %.033.lcssa, %23
  br i1 %24, label %.lr.ph44, label %.critedge, !llvm.loop !21

.critedge:                                        ; preds = %.lr.ph44, %14, %._crit_edge
  %.034.lcssa = phi ptr [ null, %._crit_edge ], [ %21, %14 ], [ %.03441, %.lr.ph44 ]
  tail call void @g_slist_free_full(ptr noundef %.034.lcssa, ptr noundef nonnull @string_elem_print)
  tail call void @g_free(ptr noundef %7)
  ret void
}